; Function Attrs: null_pointer_is_valid sspstrong uwtable
define internal noundef i32 @cigi3_add_weather_conditions_response(ptr noundef %0, ptr readnone captures(none) %1, ptr noundef %2, ptr readnone captures(none) %3) #0 {
  %5 = load i32, ptr @hf_cigi3_weather_conditions_response_request_id, align 4
  %.b38 = load i1, ptr @cigi_byte_order, align 4
  %6 = select i1 %.b38, i32 -2147483648, i32 0
  %7 = tail call ptr @proto_tree_add_item(ptr noundef %2, i32 noundef %5, ptr noundef %0, i32 noundef 0, i32 noundef 1, i32 noundef %6)
  %8 = load i32, ptr @hf_cigi3_weather_conditions_response_humidity, align 4
  %.b37 = load i1, ptr @cigi_byte_order, align 4
  %9 = select i1 %.b37, i32 -2147483648, i32 0
  %10 = tail call ptr @proto_tree_add_item(ptr noundef %2, i32 noundef %8, ptr noundef %0, i32 noundef 1, i32 noundef 1, i32 noundef %9)
  %11 = load i32, ptr @hf_cigi3_weather_conditions_response_air_temp, align 4
  %.b36 = load i1, ptr @cigi_byte_order, align 4
  %12 = select i1 %.b36, i32 -2147483648, i32 0
  %13 = tail call ptr @proto_tree_add_item(ptr noundef %2, i32 noundef %11, ptr noundef %0, i32 noundef 2, i32 noundef 4, i32 noundef %12)
  %14 = load i32, ptr @hf_cigi3_weather_conditions_response_visibility_range, align 4
  %.b35 = load i1, ptr @cigi_byte_order, align 4
  %15 = select i1 %.b35, i32 -2147483648, i32 0
  %16 = tail call ptr @proto_tree_add_item(ptr noundef %2, i32 noundef %14, ptr noundef %0, i32 noundef 6, i32 noundef 4, i32 noundef %15)
  %17 = load i32, ptr @hf_cigi3_weather_conditions_response_horiz_speed, align 4
  %.b34 = load i1, ptr @cigi_byte_order, align 4
  %18 = select i1 %.b34, i32 -2147483648, i32 0
  %19 = tail call ptr @proto_tree_add_item(ptr noundef %2, i32 noundef %17, ptr noundef %0, i32 noundef 10, i32 noundef 4, i32 noundef %18)
  %20 = load i32, ptr @hf_cigi3_weather_conditions_response_vert_speed, align 4
  %.b33 = load i1, ptr @cigi_byte_order, align 4
  %21 = select i1 %.b33, i32 -2147483648, i32 0
  %22 = tail call ptr @proto_tree_add_item(ptr noundef %2, i32 noundef %20, ptr noundef %0, i32 noundef 14, i32 noundef 4, i32 noundef %21)
  %23 = load i32, ptr @hf_cigi3_weather_conditions_response_wind_direction, align 4
  %.b32 = load i1, ptr @cigi_byte_order, align 4
  %24 = select i1 %.b32, i32 -2147483648, i32 0
  %25 = tail call ptr @proto_tree_add_item(ptr noundef %2, i32 noundef %23, ptr noundef %0, i32 noundef 18, i32 noundef 4, i32 noundef %24)
  %26 = load i32, ptr @hf_cigi3_weather_conditions_response_barometric_pressure, align 4
  %.b = load i1, ptr @cigi_byte_order, align 4
  %27 = select i1 %.b, i32 -2147483648, i32 0
  %28 = tail call ptr @proto_tree_add_item(ptr noundef %2, i32 noundef %26, ptr noundef %0, i32 noundef 22, i32 noundef 4, i32 noundef %27)
  ret i32 30
}